target datalayout = "e-m:e-p270:32:32-p271:32:32-p272:64:64-i64:64-i128:128-f80:128-n8:16:32:64-S128"
target triple = "x86_64-unknown-linux-gnu"

%"class.arrow::Status" = type { ptr }
%"class.std::__shared_count" = type { ptr }
%"class.std::shared_ptr.77" = type { %"class.std::__shared_ptr.78" }
%"class.std::__shared_ptr.78" = type { ptr, %"class.std::__shared_count" }
%struct.ArrowArrayStream = type { ptr, ptr, ptr, ptr, ptr }
%"class.arrow::(anonymous namespace)::ArrayStreamBatchReader" = type { %"class.arrow::RecordBatchReader", %struct.ArrowArrayStream, %"class.std::shared_ptr.77" }
%"class.arrow::RecordBatchReader" = type { ptr }

@stderr = external global ptr, align 8
@.str.73 = private unnamed_addr constant [11 x i8] c"%s:%d:: %s\00", align 1
@.str.74 = private unnamed_addr constant [115 x i8] c"generated/home/dtcxzyw/WorkSpace/Projects/compilers/llvm-opt-benchmark/bench/arrow/arrow/cpp/src/arrow/c/helpers.h\00", align 1
@.str.119 = private unnamed_addr constant [57 x i8] c"ArrowArrayStreamRelease did not cleanup release callback\00", align 1

; Function Attrs: mustprogress nounwind uwtable
define linkonce_odr void @_ZN5arrow6StatusC2Ev(ptr noundef nonnull align 8 dereferenceable(8) %this) unnamed_addr #1 comdat align 2 {
entry:
  %this.addr = alloca ptr, align 8
  store ptr %this, ptr %this.addr, align 8
  %this1 = load ptr, ptr %this.addr, align 8
  %state_ = getelementptr inbounds %"class.arrow::Status", ptr %this1, i32 0, i32 0
  store ptr null, ptr %state_, align 8
  ret void
}

; Function Attrs: mustprogress nounwind uwtable
define linkonce_odr void @_ZN5arrow6Status2OKEv(ptr noalias sret(%"class.arrow::Status") align 8 %agg.result) #1 comdat align 2 {
entry:
  %result.ptr = alloca ptr, align 8
  store ptr %agg.result, ptr %result.ptr, align 8
  call void @_ZN5arrow6StatusC2Ev(ptr noundef nonnull align 8 dereferenceable(8) %agg.result) #12
  ret void
}

; Function Attrs: mustprogress uwtable
define linkonce_odr void @ArrowArrayStreamRelease(ptr noundef %stream) #0 comdat {
entry:
  %stream.addr = alloca ptr, align 8
  store ptr %stream, ptr %stream.addr, align 8
  %0 = load ptr, ptr %stream.addr, align 8
  %call = call i32 @ArrowArrayStreamIsReleased(ptr noundef %0)
  %tobool = icmp ne i32 %call, 0
  br i1 %tobool, label %if.end5, label %if.then

if.then:                                          ; preds = %entry
  %1 = load ptr, ptr %stream.addr, align 8
  %release = getelementptr inbounds %struct.ArrowArrayStream, ptr %1, i32 0, i32 3
  %2 = load ptr, ptr %release, align 8
  %3 = load ptr, ptr %stream.addr, align 8
  call void %2(ptr noundef %3)
  br label %do.body

do.body:                                          ; preds = %if.then
  %4 = load ptr, ptr %stream.addr, align 8
  %call1 = call i32 @ArrowArrayStreamIsReleased(ptr noundef %4)
  %tobool2 = icmp ne i32 %call1, 0
  br i1 %tobool2, label %if.end, label %if.then3

if.then3:                                         ; preds = %do.body
  %5 = load ptr, ptr @stderr, align 8
  %call4 = call i32 (ptr, ptr, ...) @fprintf(ptr noundef %5, ptr noundef @.str.73, ptr noundef @.str.74, i32 noundef 123, ptr noundef @.str.119)
  call void @abort() #15
  unreachable

if.end:                                           ; preds = %do.body
  br label %do.end

do.end:                                           ; preds = %if.end
  br label %if.end5

if.end5:                                          ; preds = %do.end, %entry
  ret void
}

; Function Attrs: mustprogress nounwind uwtable
define linkonce_odr i32 @ArrowArrayStreamIsReleased(ptr noundef %stream) #1 comdat {
entry:
  %stream.addr = alloca ptr, align 8
  store ptr %stream, ptr %stream.addr, align 8
  %0 = load ptr, ptr %stream.addr, align 8
  %release = getelementptr inbounds %struct.ArrowArrayStream, ptr %0, i32 0, i32 3
  %1 = load ptr, ptr %release, align 8
  %cmp = icmp eq ptr %1, null
  %conv = zext i1 %cmp to i32
  ret i32 %conv
}

; Function Attrs: mustprogress uwtable
define internal void @_ZN5arrow12_GLOBAL__N_122ArrayStreamBatchReader5CloseEv(ptr noalias sret(%"class.arrow::Status") align 8 %agg.result, ptr noundef nonnull align 8 dereferenceable(64) %this) unnamed_addr #0 align 2 {
entry:
  %result.ptr = alloca ptr, align 8
  %this.addr = alloca ptr, align 8
  store ptr %agg.result, ptr %result.ptr, align 8
  store ptr %this, ptr %this.addr, align 8
  %this1 = load ptr, ptr %this.addr, align 8
  %stream_ = getelementptr inbounds %"class.arrow::(anonymous namespace)::ArrayStreamBatchReader", ptr %this1, i32 0, i32 1
  %call = call i32 @ArrowArrayStreamIsReleased(ptr noundef %stream_)
  %tobool = icmp ne i32 %call, 0
  br i1 %tobool, label %if.end, label %if.then

if.then:                                          ; preds = %entry
  %stream_2 = getelementptr inbounds %"class.arrow::(anonymous namespace)::ArrayStreamBatchReader", ptr %this1, i32 0, i32 1
  call void @ArrowArrayStreamRelease(ptr noundef %stream_2)
  br label %if.end

if.end:                                           ; preds = %if.then, %entry
  call void @_ZN5arrow6Status2OKEv(ptr sret(%"class.arrow::Status") align 8 %agg.result)
  ret void
}