; Function Attrs: mustprogress uwtable
define internal void @_ZN5arrow12_GLOBAL__N_122ArrayStreamBatchReader5CloseEv(ptr noalias nocapture writeonly sret(%"class.arrow::Status") align 8 %agg.result, ptr noundef nonnull align 8 dereferenceable(64) %this) unnamed_addr #0 align 2 {
entry:
  %release.i = getelementptr inbounds i8, ptr %this, i64 32
  %0 = load ptr, ptr %release.i, align 8
  %cmp.i = icmp eq ptr %0, null
  br i1 %cmp.i, label %if.end, label %if.then.i

if.then.i:                                        ; preds = %entry
  %stream_ = getelementptr inbounds i8, ptr %this, i64 8
  tail call void %0(ptr noundef nonnull %stream_)
  %1 = load ptr, ptr %release.i, align 8
  %cmp.i5.not.i = icmp eq ptr %1, null
  br i1 %cmp.i5.not.i, label %if.end, label %if.then3.i

if.then3.i:                                       ; preds = %if.then.i
  %2 = load ptr, ptr @stderr, align 8
  %call4.i = tail call i32 (ptr, ptr, ...) @fprintf(ptr noundef %2, ptr noundef nonnull @.str.73, ptr noundef nonnull @.str.74, i32 noundef 123, ptr noundef nonnull @.str.119) #30
  tail call void @abort() #31
  unreachable

if.end:                                           ; preds = %entry, %if.then.i
  store ptr null, ptr %agg.result, align 8, !alias.scope !2427
  ret void
}